target datalayout = "e-m:e-p270:32:32-p271:32:32-p272:64:64-i64:64-i128:128-f80:128-n8:16:32:64-S128"
target triple = "x86_64-unknown-linux-gnu"

%"class.icu_75::ScriptSet" = type { [7 x i32] }
%union.UElement = type { ptr }

; Function Attrs: mustprogress nounwind uwtable
define noundef zeroext i1 @_ZNK6icu_759ScriptSeteqERKS0_(ptr noundef nonnull align 4 dereferenceable(28) %this, ptr noundef nonnull align 4 dereferenceable(28) %other) #0 align 2 {
entry:
  %retval = alloca i1, align 1
  %this.addr = alloca ptr, align 8
  %other.addr = alloca ptr, align 8
  %i = alloca i32, align 4
  store ptr %this, ptr %this.addr, align 8
  store ptr %other, ptr %other.addr, align 8
  %this1 = load ptr, ptr %this.addr, align 8
  store i32 0, ptr %i, align 4
  br label %for.cond

for.cond:                                         ; preds = %for.inc, %entry
  %0 = load i32, ptr %i, align 4
  %cmp = icmp ult i32 %0, 7
  br i1 %cmp, label %for.body, label %for.end

for.body:                                         ; preds = %for.cond
  %bits = getelementptr inbounds %"class.icu_75::ScriptSet", ptr %this1, i32 0, i32 0
  %1 = load i32, ptr %i, align 4
  %idxprom = zext i32 %1 to i64
  %arrayidx = getelementptr inbounds [7 x i32], ptr %bits, i64 0, i64 %idxprom
  %2 = load i32, ptr %arrayidx, align 4
  %3 = load ptr, ptr %other.addr, align 8
  %bits2 = getelementptr inbounds %"class.icu_75::ScriptSet", ptr %3, i32 0, i32 0
  %4 = load i32, ptr %i, align 4
  %idxprom3 = zext i32 %4 to i64
  %arrayidx4 = getelementptr inbounds [7 x i32], ptr %bits2, i64 0, i64 %idxprom3
  %5 = load i32, ptr %arrayidx4, align 4
  %cmp5 = icmp ne i32 %2, %5
  br i1 %cmp5, label %if.then, label %if.end

if.then:                                          ; preds = %for.body
  store i1 false, ptr %retval, align 1
  br label %return

if.end:                                           ; preds = %for.body
  br label %for.inc

for.inc:                                          ; preds = %if.end
  %6 = load i32, ptr %i, align 4
  %inc = add i32 %6, 1
  store i32 %inc, ptr %i, align 4
  br label %for.cond, !llvm.loop !4

for.end:                                          ; preds = %for.cond
  store i1 true, ptr %retval, align 1
  br label %return

return:                                           ; preds = %for.end, %if.then
  %7 = load i1, ptr %retval, align 1
  ret i1 %7
}

; Function Attrs: mustprogress nounwind uwtable
define signext i8 @uhash_equalsScriptSet_75(ptr %key1.coerce, ptr %key2.coerce) #0 {
entry:
  %key1 = alloca %union.UElement, align 8
  %key2 = alloca %union.UElement, align 8
  %s1 = alloca ptr, align 8
  %s2 = alloca ptr, align 8
  %coerce.dive = getelementptr inbounds %union.UElement, ptr %key1, i32 0, i32 0
  store ptr %key1.coerce, ptr %coerce.dive, align 8
  %coerce.dive1 = getelementptr inbounds %union.UElement, ptr %key2, i32 0, i32 0
  store ptr %key2.coerce, ptr %coerce.dive1, align 8
  %0 = load ptr, ptr %key1, align 8
  store ptr %0, ptr %s1, align 8
  %1 = load ptr, ptr %key2, align 8
  store ptr %1, ptr %s2, align 8
  %2 = load ptr, ptr %s1, align 8
  %3 = load ptr, ptr %s2, align 8
  %call = call noundef zeroext i1 @_ZNK6icu_759ScriptSeteqERKS0_(ptr noundef nonnull align 4 dereferenceable(28) %2, ptr noundef nonnull align 4 dereferenceable(28) %3)
  %conv = zext i1 %call to i8
  ret i8 %conv
}