; Function Attrs: mustprogress nofree norecurse nosync nounwind willreturn memory(argmem: read) uwtable
define signext i8 @uhash_equalsScriptSet_75(ptr nocapture readonly %key1.coerce, ptr nocapture readonly %key2.coerce) local_unnamed_addr #5 {
entry:
  %0 = load i32, ptr %key1.coerce, align 4
  %1 = load i32, ptr %key2.coerce, align 4
  %cmp5.not.i1 = icmp eq i32 %0, %1
  br i1 %cmp5.not.i1, label %for.cond.i, label %_ZNK6icu_759ScriptSeteqERKS0_.exit

for.cond.i:                                       ; preds = %entry, %for.body.i
  %indvars.iv.i2 = phi i64 [ %indvars.iv.next.i, %for.body.i ], [ 0, %entry ]
  %indvars.iv.next.i = add nuw nsw i64 %indvars.iv.i2, 1
  %exitcond.i = icmp eq i64 %indvars.iv.next.i, 7
  br i1 %exitcond.i, label %_ZNK6icu_759ScriptSeteqERKS0_.exit.loopexit, label %for.body.i, !llvm.loop !4

for.body.i:                                       ; preds = %for.cond.i
  %arrayidx.i = getelementptr inbounds [7 x i32], ptr %key1.coerce, i64 0, i64 %indvars.iv.next.i
  %2 = load i32, ptr %arrayidx.i, align 4
  %arrayidx4.i = getelementptr inbounds [7 x i32], ptr %key2.coerce, i64 0, i64 %indvars.iv.next.i
  %3 = load i32, ptr %arrayidx4.i, align 4
  %cmp5.not.i = icmp eq i32 %2, %3
  br i1 %cmp5.not.i, label %for.cond.i, label %_ZNK6icu_759ScriptSeteqERKS0_.exit.loopexit, !llvm.loop !4

_ZNK6icu_759ScriptSeteqERKS0_.exit.loopexit:      ; preds = %for.cond.i, %for.body.i
  %cmp.i.le = icmp ugt i64 %indvars.iv.i2, 5
  %4 = zext i1 %cmp.i.le to i8
  br label %_ZNK6icu_759ScriptSeteqERKS0_.exit

_ZNK6icu_759ScriptSeteqERKS0_.exit:               ; preds = %_ZNK6icu_759ScriptSeteqERKS0_.exit.loopexit, %entry
  %cmp.lcssa.i = phi i8 [ 0, %entry ], [ %4, %_ZNK6icu_759ScriptSeteqERKS0_.exit.loopexit ]
  ret i8 %cmp.lcssa.i
}